; Function Attrs: nounwind uwtable
define dso_local void @prep_prolog_slurmctld_callback(i32 noundef %0, i32 noundef %1, i1 noundef zeroext %2) local_unnamed_addr #0 {
  tail call void @lock_slurmctld(ptr noundef nonnull byval(%struct.slurmctld_lock_t) align 8 @__const.prep_prolog_slurmctld_callback.job_write_lock) #2
  %4 = tail call ptr @find_job_record(i32 noundef %1) #2
  %.not = icmp eq ptr %4, null
  br i1 %.not, label %5, label %7

5:                                                ; preds = %3
  %6 = tail call i32 (ptr, ...) @error(ptr noundef nonnull @.str, ptr noundef nonnull @__func__.prep_prolog_slurmctld_callback, i32 noundef %1) #2
  br label %61

7:                                                ; preds = %3
  %8 = and i32 %0, 127
  %9 = shl nuw nsw i32 %8, 24
  %sext = add nuw i32 %9, 16777216
  %10 = icmp sgt i32 %sext, 33554431
  %brmerge.not = and i1 %2, %10
  br i1 %brmerge.not, label %11, label %13

11:                                               ; preds = %7
  %12 = tail call i32 (ptr, ...) @error(ptr noundef nonnull @.str.1, i32 noundef %1) #2
  br label %.sink.split

13:                                               ; preds = %7
  %14 = icmp eq i32 %8, 0
  br i1 %14, label %15, label %21

15:                                               ; preds = %13
  %16 = lshr i32 %0, 8
  %17 = and i32 %16, 255
  %.not44 = icmp eq i32 %17, 0
  br i1 %.not44, label %21, label %18

18:                                               ; preds = %15
  %19 = tail call i32 (ptr, ...) @error(ptr noundef nonnull @.str.2, i32 noundef %1, i32 noundef %17, i32 noundef 0) #2
  br label %.sink.split

.sink.split:                                      ; preds = %11, %18
  %20 = getelementptr inbounds nuw i8, ptr %4, i64 716
  store i8 1, ptr %20, align 4
  br label %21

21:                                               ; preds = %.sink.split, %13, %15
  %22 = getelementptr inbounds nuw i8, ptr %4, i64 712
  %23 = load i32, ptr %22, align 8
  %.not45 = icmp eq i32 %23, 0
  br i1 %.not45, label %.thread, label %24

24:                                               ; preds = %21
  %25 = add i32 %23, -1
  store i32 %25, ptr %22, align 8
  %.not46 = icmp eq i32 %25, 0
  br i1 %.not46, label %.thread, label %26

26:                                               ; preds = %24
  %27 = tail call i32 @get_log_level() #2
  %28 = icmp sgt i32 %27, 5
  br i1 %28, label %29, label %61

29:                                               ; preds = %26
  %30 = load i32, ptr %22, align 8
  tail call void (i32, ptr, ...) @log_var(i32 noundef 6, ptr noundef nonnull @.str.3, ptr noundef nonnull @__func__.prep_prolog_slurmctld_callback, i32 noundef %30) #2
  br label %61

.thread:                                          ; preds = %21, %24
  %31 = getelementptr inbounds nuw i8, ptr %4, i64 716
  %32 = load i8, ptr %31, align 4, !range !8, !noundef !9
  %33 = trunc nuw i8 %32 to i1
  br i1 %33, label %34, label %56

34:                                               ; preds = %.thread
  store i8 0, ptr %31, align 4
  %35 = getelementptr inbounds nuw i8, ptr %4, i64 360
  %36 = load i32, ptr %35, align 8
  %.not47 = icmp eq i32 %36, 0
  %spec.select = select i1 %.not47, i32 %1, i32 %36
  %37 = tail call i32 @job_requeue(i32 noundef 0, i32 noundef %spec.select, ptr noundef null, i1 noundef zeroext false, i32 noundef 0) #2
  switch i32 %37, label %38 [
    i32 2024, label %60
    i32 0, label %60
  ]

38:                                               ; preds = %34
  %39 = tail call i32 @get_log_level() #2
  %40 = icmp sgt i32 %39, 2
  br i1 %40, label %41, label %43

41:                                               ; preds = %38
  %42 = tail call ptr @slurm_strerror(i32 noundef %37) #2
  tail call void (i32, ptr, ...) @log_var(i32 noundef 3, ptr noundef nonnull @.str.4, i32 noundef %spec.select, ptr noundef %42) #2
  br label %43

43:                                               ; preds = %41, %38
  %44 = tail call i32 @srun_user_message(ptr noundef nonnull %4, ptr noundef nonnull @.str.5) #2
  %45 = load i32, ptr %35, align 8
  %.not48 = icmp eq i32 %45, 0
  br i1 %.not48, label %54, label %46

46:                                               ; preds = %43
  %47 = getelementptr inbounds nuw i8, ptr %4, i64 384
  %48 = load ptr, ptr %47, align 8
  %.not49 = icmp eq ptr %48, null
  br i1 %.not49, label %49, label %.thread54

49:                                               ; preds = %46
  %50 = tail call ptr @find_job_record(i32 noundef %45) #2
  %.not50 = icmp eq ptr %50, null
  br i1 %.not50, label %52, label %.thread54

.thread54:                                        ; preds = %46, %49
  %.057 = phi ptr [ %50, %49 ], [ %4, %46 ]
  %51 = tail call i32 @het_job_signal(ptr noundef nonnull %.057, i16 noundef zeroext 9, i16 noundef zeroext 0, i32 noundef 0, i1 noundef zeroext false) #2
  br label %60

52:                                               ; preds = %49
  %53 = tail call i32 (ptr, ...) @error(ptr noundef nonnull @.str.6, ptr noundef nonnull %4) #2
  br label %60

54:                                               ; preds = %43
  %55 = tail call i32 @job_signal(ptr noundef nonnull %4, i16 noundef zeroext 9, i16 noundef zeroext 0, i32 noundef 0, i1 noundef zeroext false) #2
  br label %60

56:                                               ; preds = %.thread
  %57 = tail call i32 @get_log_level() #2
  %58 = icmp sgt i32 %57, 5
  br i1 %58, label %59, label %60

59:                                               ; preds = %56
  tail call void (i32, ptr, ...) @log_var(i32 noundef 6, ptr noundef nonnull @.str.7, i32 noundef %1) #2
  br label %60

60:                                               ; preds = %34, %34, %54, %52, %.thread54, %56, %59
  tail call void @prolog_running_decr(ptr noundef nonnull %4) #2
  br label %61

61:                                               ; preds = %26, %29, %60, %5
  tail call void @unlock_slurmctld(ptr noundef nonnull byval(%struct.slurmctld_lock_t) align 8 @__const.prep_prolog_slurmctld_callback.job_write_lock) #2
  ret void
}